target datalayout = "e-m:e-p270:32:32-p271:32:32-p272:64:64-i64:64-i128:128-f80:128-n8:16:32:64-S128"
target triple = "x86_64-pc-linux-gnu"

%struct.ldap_call_response = type { i8, i32, %struct.nstime_t, i32, i32, i32 }
%struct.nstime_t = type { i64, i32 }
%struct._srt_data_t = type { ptr, ptr }
%struct._GArray = type { ptr, i32 }

; Function Attrs: null_pointer_is_valid sspstrong uwtable
define internal i32 @ldapstat_packet(ptr noundef %0, ptr noundef %1, ptr noundef %2, ptr noundef %3, i32 noundef %4) #0 {
  %6 = alloca i32, align 4
  %7 = alloca ptr, align 8
  %8 = alloca ptr, align 8
  %9 = alloca ptr, align 8
  %10 = alloca ptr, align 8
  %11 = alloca i32, align 4
  %12 = alloca i32, align 4
  %13 = alloca ptr, align 8
  %14 = alloca ptr, align 8
  %15 = alloca ptr, align 8
  %16 = alloca i32, align 4
  store ptr %0, ptr %7, align 8
  store ptr %1, ptr %8, align 8
  store ptr %2, ptr %9, align 8
  store ptr %3, ptr %10, align 8
  store i32 %4, ptr %11, align 4
  call void @llvm.lifetime.start.p0(i64 4, ptr %12) #16
  store i32 0, ptr %12, align 4
  call void @llvm.lifetime.start.p0(i64 8, ptr %13) #16
  call void @llvm.lifetime.start.p0(i64 8, ptr %14) #16
  %17 = load ptr, ptr %10, align 8
  store ptr %17, ptr %14, align 8
  call void @llvm.lifetime.start.p0(i64 8, ptr %15) #16
  %18 = load ptr, ptr %7, align 8
  store ptr %18, ptr %15, align 8
  %19 = load ptr, ptr %14, align 8
  %20 = getelementptr inbounds nuw %struct.ldap_call_response, ptr %19, i32 0, i32 0
  %21 = load i8, ptr %20, align 8, !range !6, !noundef !7
  %22 = trunc i8 %21 to i1
  br i1 %22, label %23, label %24

23:                                               ; preds = %5
  store i32 0, ptr %6, align 4
  store i32 1, ptr %16, align 4
  br label %53

24:                                               ; preds = %5
  %25 = load ptr, ptr %14, align 8
  %26 = getelementptr inbounds nuw %struct.ldap_call_response, ptr %25, i32 0, i32 1
  %27 = load i32, ptr %26, align 4
  %28 = icmp ne i32 %27, 0
  br i1 %28, label %30, label %29

29:                                               ; preds = %24
  store i32 0, ptr %6, align 4
  store i32 1, ptr %16, align 4
  br label %53

30:                                               ; preds = %24
  %31 = load ptr, ptr %14, align 8
  %32 = getelementptr inbounds nuw %struct.ldap_call_response, ptr %31, i32 0, i32 5
  %33 = load i32, ptr %32, align 8
  switch i32 %33, label %35 [
    i32 0, label %34
    i32 3, label %34
    i32 6, label %34
    i32 8, label %34
    i32 10, label %34
    i32 12, label %34
    i32 14, label %34
    i32 23, label %34
  ]

34:                                               ; preds = %30, %30, %30, %30, %30, %30, %30, %30
  br label %36

35:                                               ; preds = %30
  store i32 0, ptr %6, align 4
  store i32 1, ptr %16, align 4
  br label %53

36:                                               ; preds = %34
  %37 = load ptr, ptr %15, align 8
  %38 = getelementptr inbounds nuw %struct._srt_data_t, ptr %37, i32 0, i32 0
  %39 = load ptr, ptr %38, align 8
  %40 = getelementptr inbounds nuw %struct._GArray, ptr %39, i32 0, i32 0
  %41 = load ptr, ptr %40, align 8
  %42 = load i32, ptr %12, align 4
  %43 = zext i32 %42 to i64
  %44 = getelementptr ptr, ptr %41, i64 %43
  %45 = load ptr, ptr %44, align 8
  store ptr %45, ptr %13, align 8
  %46 = load ptr, ptr %13, align 8
  %47 = load ptr, ptr %14, align 8
  %48 = getelementptr inbounds nuw %struct.ldap_call_response, ptr %47, i32 0, i32 5
  %49 = load i32, ptr %48, align 8
  %50 = load ptr, ptr %14, align 8
  %51 = getelementptr inbounds nuw %struct.ldap_call_response, ptr %50, i32 0, i32 2
  %52 = load ptr, ptr %8, align 8
  call void @add_srt_table_data(ptr noundef %46, i32 noundef %49, ptr noundef %51, ptr noundef %52)
  store i32 1, ptr %6, align 4
  store i32 1, ptr %16, align 4
  br label %53

53:                                               ; preds = %36, %35, %29, %23
  call void @llvm.lifetime.end.p0(i64 8, ptr %15) #16
  call void @llvm.lifetime.end.p0(i64 8, ptr %14) #16
  call void @llvm.lifetime.end.p0(i64 8, ptr %13) #16
  call void @llvm.lifetime.end.p0(i64 4, ptr %12) #16
  %54 = load i32, ptr %6, align 4
  ret i32 %54
}