; Function Attrs: null_pointer_is_valid sspstrong uwtable
define internal range(i32 0, 2) i32 @ldapstat_packet(ptr noundef readonly captures(none) %0, ptr noundef %1, ptr readnone captures(none) %2, ptr noundef %3, i32 %4) #0 {
  %6 = load i8, ptr %3, align 8, !range !6, !noundef !7
  %7 = trunc nuw i8 %6 to i1
  br i1 %7, label %19, label %8

8:                                                ; preds = %5
  %9 = getelementptr inbounds nuw i8, ptr %3, i64 4
  %10 = load i32, ptr %9, align 4
  %.not = icmp eq i32 %10, 0
  br i1 %.not, label %19, label %11

11:                                               ; preds = %8
  %12 = getelementptr inbounds nuw i8, ptr %3, i64 32
  %13 = load i32, ptr %12, align 8
  switch i32 %13, label %19 [
    i32 0, label %14
    i32 3, label %14
    i32 6, label %14
    i32 8, label %14
    i32 10, label %14
    i32 12, label %14
    i32 14, label %14
    i32 23, label %14
  ]

14:                                               ; preds = %11, %11, %11, %11, %11, %11, %11, %11
  %15 = load ptr, ptr %0, align 8
  %16 = load ptr, ptr %15, align 8
  %17 = load ptr, ptr %16, align 8
  %18 = getelementptr inbounds nuw i8, ptr %3, i64 8
  tail call void @add_srt_table_data(ptr noundef %17, i32 noundef %13, ptr noundef nonnull %18, ptr noundef %1)
  br label %19

19:                                               ; preds = %11, %8, %5, %14
  %.0 = phi i32 [ 1, %14 ], [ 0, %5 ], [ 0, %8 ], [ 0, %11 ]
  ret i32 %.0
}